target datalayout = "e-m:e-p270:32:32-p271:32:32-p272:64:64-i64:64-i128:128-f80:128-n8:16:32:64-S128"
target triple = "x86_64-pc-linux-gnu"

%struct.TupleTableSlotOps = type { i64, ptr, ptr, ptr, ptr, ptr, ptr, ptr, ptr, ptr, ptr, ptr, ptr }
%struct.SetExprState = type { i32, ptr, ptr, ptr, %struct.FmgrInfo, ptr, ptr, ptr, i8, i8, i8, i8, ptr }
%struct.FmgrInfo = type { ptr, i32, i16, i8, i8, i8, ptr, ptr, ptr }
%struct.ItemPointerData = type { %struct.BlockIdData, i16 }
%struct.BlockIdData = type { i16, i16 }
%struct.TupleTableSlot = type { i32, i16, i16, ptr, ptr, ptr, ptr, ptr, %struct.ItemPointerData, i32 }

; Function Attrs: inlinehint nounwind uwtable
define internal ptr @ExecClearTuple(ptr noundef %0) #2 {
  %2 = alloca ptr, align 8
  store ptr %0, ptr %2, align 8
  %3 = load ptr, ptr %2, align 8
  %4 = getelementptr inbounds nuw %struct.TupleTableSlot, ptr %3, i32 0, i32 3
  %5 = load ptr, ptr %4, align 8
  %6 = getelementptr inbounds nuw %struct.TupleTableSlotOps, ptr %5, i32 0, i32 3
  %7 = load ptr, ptr %6, align 8
  %8 = load ptr, ptr %2, align 8
  call void %7(ptr noundef %8)
  %9 = load ptr, ptr %2, align 8
  ret ptr %9
}

; Function Attrs: inlinehint nounwind uwtable
define internal ptr @DatumGetPointer(i64 noundef %0) #2 {
  %2 = alloca i64, align 8
  store i64 %0, ptr %2, align 8
  %3 = load i64, ptr %2, align 8
  %4 = inttoptr i64 %3 to ptr
  ret ptr %4
}

; Function Attrs: nounwind uwtable
define internal void @ShutdownSetExpr(i64 noundef %0) #0 {
  %2 = alloca i64, align 8
  %3 = alloca ptr, align 8
  store i64 %0, ptr %2, align 8
  call void @llvm.lifetime.start.p0(i64 8, ptr %3) #7
  %4 = load i64, ptr %2, align 8
  %5 = call ptr @DatumGetPointer(i64 noundef %4)
  store ptr %5, ptr %3, align 8
  %6 = load ptr, ptr %3, align 8
  %7 = getelementptr inbounds nuw %struct.SetExprState, ptr %6, i32 0, i32 6
  %8 = load ptr, ptr %7, align 8
  %9 = icmp ne ptr %8, null
  br i1 %9, label %10, label %15

10:                                               ; preds = %1
  %11 = load ptr, ptr %3, align 8
  %12 = getelementptr inbounds nuw %struct.SetExprState, ptr %11, i32 0, i32 6
  %13 = load ptr, ptr %12, align 8
  %14 = call ptr @ExecClearTuple(ptr noundef %13)
  br label %15

15:                                               ; preds = %10, %1
  %16 = load ptr, ptr %3, align 8
  %17 = getelementptr inbounds nuw %struct.SetExprState, ptr %16, i32 0, i32 5
  %18 = load ptr, ptr %17, align 8
  %19 = icmp ne ptr %18, null
  br i1 %19, label %20, label %24

20:                                               ; preds = %15
  %21 = load ptr, ptr %3, align 8
  %22 = getelementptr inbounds nuw %struct.SetExprState, ptr %21, i32 0, i32 5
  %23 = load ptr, ptr %22, align 8
  call void @tuplestore_end(ptr noundef %23)
  br label %24

24:                                               ; preds = %20, %15
  %25 = load ptr, ptr %3, align 8
  %26 = getelementptr inbounds nuw %struct.SetExprState, ptr %25, i32 0, i32 5
  store ptr null, ptr %26, align 8
  %27 = load ptr, ptr %3, align 8
  %28 = getelementptr inbounds nuw %struct.SetExprState, ptr %27, i32 0, i32 10
  store i8 0, ptr %28, align 2
  %29 = load ptr, ptr %3, align 8
  %30 = getelementptr inbounds nuw %struct.SetExprState, ptr %29, i32 0, i32 11
  store i8 0, ptr %30, align 1
  call void @llvm.lifetime.end.p0(i64 8, ptr %3) #7
  ret void
}