; Function Attrs: nounwind uwtable
define internal void @ShutdownSetExpr(i64 noundef %0) #0 {
  %2 = inttoptr i64 %0 to ptr
  %3 = getelementptr inbounds nuw i8, ptr %2, i64 88
  %4 = load ptr, ptr %3, align 8
  %.not = icmp eq ptr %4, null
  br i1 %.not, label %10, label %5

5:                                                ; preds = %1
  %6 = getelementptr inbounds nuw i8, ptr %4, i64 8
  %7 = load ptr, ptr %6, align 8
  %8 = getelementptr inbounds nuw i8, ptr %7, i64 24
  %9 = load ptr, ptr %8, align 8
  tail call void %9(ptr noundef nonnull %4) #6
  br label %10

10:                                               ; preds = %5, %1
  %11 = getelementptr inbounds nuw i8, ptr %2, i64 80
  %12 = load ptr, ptr %11, align 8
  %.not8 = icmp eq ptr %12, null
  br i1 %.not8, label %14, label %13

13:                                               ; preds = %10
  tail call void @tuplestore_end(ptr noundef nonnull %12) #6
  br label %14

14:                                               ; preds = %13, %10
  store ptr null, ptr %11, align 8
  %15 = getelementptr inbounds nuw i8, ptr %2, i64 106
  store i8 0, ptr %15, align 2
  %16 = getelementptr inbounds nuw i8, ptr %2, i64 107
  store i8 0, ptr %16, align 1
  ret void
}